ccopy_reg
_reconstructor
p0
(c__main__
MyUserDB
p1
c__builtin__
object
p2
Ntp3
Rp4
(dp5
S'username'
p6
S'admin'
p7
sS'initflag'
p8
I01
sS'userdbpath'
p9
S'./MyUserDB/admin'
p10
sS'x'
p11
I1
sS'lastlogtime'
p12
F1463592074.631053
sS'password'
p13
g7
sS'data'
p14
S'Hello World33'
p15
sS'createtime'
p16
F1463591939.401045
sb.