ccopy_reg
_reconstructor
p0
(c__main__
MyUserDB
p1
c__builtin__
object
p2
Ntp3
Rp4
(dp5
S'username'
p6
S'admin'
p7
sS'initflag'
p8
I01
sS'userdbpath'
p9
S'./MyUserDB/admin'
p10
sS'lastlogtime'
p11
F1463581594.23881
sS'password'
p12
g7
sS'data'
p13
S'Hello World'
p14
sS'createtime'
p15
F1463581402.976524
sb.